(lp0
(dp1
S'acc'
p2
cnumpy.core.multiarray
scalar
p3
(cnumpy
dtype
p4
(S'f8'
p5
I0
I1
tp6
Rp7
(I3
S'<'
p8
NNNI-1
I-1
I0
tp9
bS'<\x81p\xf2\x89\xff\xef?'
p10
tp11
Rp12
sS'loss'
p13
g3
(g7
S'&\xff\xc5A\x90\xf7K?'
p14
tp15
Rp16
sS'val_acc'
p17
g3
(g7
S"zY\xc4'\x90\xea\xe8?"
p18
tp19
Rp20
sS'val_loss'
p21
g3
(g7
S'Ur^%\x05\x87\xeb?'
p22
tp23
Rp24
sag1
ag1
ag1
ag1
ag1
ag1
ag1
ag1
ag1
a.