(lp0
(dp1
S'acc'
p2
cnumpy.core.multiarray
scalar
p3
(cnumpy
dtype
p4
(S'f8'
p5
I0
I1
tp6
Rp7
(I3
S'<'
p8
NNNI-1
I-1
I0
tp9
bS'\xdb\xc1\xa8\xebN\xff\xef?'
p10
tp11
Rp12
sS'loss'
p13
g3
(g7
S'\xbe\x9f6y\x84\x02Q?'
p14
tp15
Rp16
sS'val_acc'
p17
g3
(g7
S'\xfeV\x1bC\xd3\x9d\xe9?'
p18
tp19
Rp20
sS'val_loss'
p21
g3
(g7
S'P \x95\x1f\x94v\xed?'
p22
tp23
Rp24
sag1
ag1
ag1
ag1
ag1
ag1
ag1
ag1
ag1
a.